target datalayout = "e-m:e-p270:32:32-p271:32:32-p272:64:64-i64:64-i128:128-f80:128-n8:16:32:64-S128"
target triple = "x86_64-pc-linux-gnu"

%struct.Aig_Obj_t_ = type { %union.anon, ptr, ptr, i64, i32, i32, %union.anon.0 }
%union.anon = type { ptr }
%union.anon.0 = type { ptr }

; Function Attrs: inlinehint nounwind uwtable
define internal ptr @Aig_Regular(ptr noundef %0) #4 {
  %2 = alloca ptr, align 8
  store ptr %0, ptr %2, align 8, !tbaa !24
  %3 = load ptr, ptr %2, align 8, !tbaa !24
  %4 = ptrtoint ptr %3 to i64
  %5 = and i64 %4, -2
  %6 = inttoptr i64 %5 to ptr
  ret ptr %6
}

; Function Attrs: inlinehint nounwind uwtable
define internal i32 @Aig_IsComplement(ptr noundef %0) #4 {
  %2 = alloca ptr, align 8
  store ptr %0, ptr %2, align 8, !tbaa !24
  %3 = load ptr, ptr %2, align 8, !tbaa !24
  %4 = ptrtoint ptr %3 to i64
  %5 = and i64 %4, 1
  %6 = trunc i64 %5 to i32
  ret i32 %6
}

; Function Attrs: inlinehint nounwind uwtable
define internal ptr @Aig_ObjFanin1(ptr noundef %0) #4 {
  %2 = alloca ptr, align 8
  store ptr %0, ptr %2, align 8, !tbaa !24
  %3 = load ptr, ptr %2, align 8, !tbaa !24
  %4 = getelementptr inbounds nuw %struct.Aig_Obj_t_, ptr %3, i32 0, i32 2
  %5 = load ptr, ptr %4, align 8, !tbaa !40
  %6 = call ptr @Aig_Regular(ptr noundef %5)
  ret ptr %6
}

; Function Attrs: inlinehint nounwind uwtable
define internal ptr @Aig_ObjFanin0(ptr noundef %0) #4 {
  %2 = alloca ptr, align 8
  store ptr %0, ptr %2, align 8, !tbaa !24
  %3 = load ptr, ptr %2, align 8, !tbaa !24
  %4 = getelementptr inbounds nuw %struct.Aig_Obj_t_, ptr %3, i32 0, i32 1
  %5 = load ptr, ptr %4, align 8, !tbaa !37
  %6 = call ptr @Aig_Regular(ptr noundef %5)
  ret ptr %6
}

; Function Attrs: inlinehint nounwind uwtable
define internal i32 @Aig_ObjFaninC1(ptr noundef %0) #4 {
  %2 = alloca ptr, align 8
  store ptr %0, ptr %2, align 8, !tbaa !24
  %3 = load ptr, ptr %2, align 8, !tbaa !24
  %4 = getelementptr inbounds nuw %struct.Aig_Obj_t_, ptr %3, i32 0, i32 2
  %5 = load ptr, ptr %4, align 8, !tbaa !40
  %6 = call i32 @Aig_IsComplement(ptr noundef %5)
  ret i32 %6
}

; Function Attrs: inlinehint nounwind uwtable
define internal i32 @Aig_ObjFaninC0(ptr noundef %0) #4 {
  %2 = alloca ptr, align 8
  store ptr %0, ptr %2, align 8, !tbaa !24
  %3 = load ptr, ptr %2, align 8, !tbaa !24
  %4 = getelementptr inbounds nuw %struct.Aig_Obj_t_, ptr %3, i32 0, i32 1
  %5 = load ptr, ptr %4, align 8, !tbaa !37
  %6 = call i32 @Aig_IsComplement(ptr noundef %5)
  ret i32 %6
}

; Function Attrs: inlinehint nounwind uwtable
define internal i32 @Aig_ObjIsAnd(ptr noundef %0) #4 {
  %2 = alloca ptr, align 8
  store ptr %0, ptr %2, align 8, !tbaa !24
  %3 = load ptr, ptr %2, align 8, !tbaa !24
  %4 = getelementptr inbounds nuw %struct.Aig_Obj_t_, ptr %3, i32 0, i32 3
  %5 = load i64, ptr %4, align 8
  %6 = and i64 %5, 7
  %7 = trunc i64 %6 to i32
  %8 = icmp eq i32 %7, 5
  %9 = zext i1 %8 to i32
  ret i32 %9
}

; Function Attrs: nounwind uwtable
define i32 @Aig_ObjIsMuxType(ptr noundef %0) #0 {
  %2 = alloca i32, align 4
  %3 = alloca ptr, align 8
  %4 = alloca ptr, align 8
  %5 = alloca ptr, align 8
  %6 = alloca i32, align 4
  store ptr %0, ptr %3, align 8, !tbaa !24
  call void @llvm.lifetime.start.p0(i64 8, ptr %4) #10
  call void @llvm.lifetime.start.p0(i64 8, ptr %5) #10
  %7 = load ptr, ptr %3, align 8, !tbaa !24
  %8 = call i32 @Aig_ObjIsAnd(ptr noundef %7)
  %9 = icmp ne i32 %8, 0
  br i1 %9, label %11, label %10

10:                                               ; preds = %1
  store i32 0, ptr %2, align 4
  store i32 1, ptr %6, align 4
  br label %90

11:                                               ; preds = %1
  %12 = load ptr, ptr %3, align 8, !tbaa !24
  %13 = call i32 @Aig_ObjFaninC0(ptr noundef %12)
  %14 = icmp ne i32 %13, 0
  br i1 %14, label %15, label %19

15:                                               ; preds = %11
  %16 = load ptr, ptr %3, align 8, !tbaa !24
  %17 = call i32 @Aig_ObjFaninC1(ptr noundef %16)
  %18 = icmp ne i32 %17, 0
  br i1 %18, label %20, label %19

19:                                               ; preds = %15, %11
  store i32 0, ptr %2, align 4
  store i32 1, ptr %6, align 4
  br label %90

20:                                               ; preds = %15
  %21 = load ptr, ptr %3, align 8, !tbaa !24
  %22 = call ptr @Aig_ObjFanin0(ptr noundef %21)
  store ptr %22, ptr %4, align 8, !tbaa !24
  %23 = load ptr, ptr %3, align 8, !tbaa !24
  %24 = call ptr @Aig_ObjFanin1(ptr noundef %23)
  store ptr %24, ptr %5, align 8, !tbaa !24
  %25 = load ptr, ptr %4, align 8, !tbaa !24
  %26 = call i32 @Aig_ObjIsAnd(ptr noundef %25)
  %27 = icmp ne i32 %26, 0
  br i1 %27, label %28, label %32

28:                                               ; preds = %20
  %29 = load ptr, ptr %5, align 8, !tbaa !24
  %30 = call i32 @Aig_ObjIsAnd(ptr noundef %29)
  %31 = icmp ne i32 %30, 0
  br i1 %31, label %33, label %32

32:                                               ; preds = %28, %20
  store i32 0, ptr %2, align 4
  store i32 1, ptr %6, align 4
  br label %90

33:                                               ; preds = %28
  %34 = load ptr, ptr %4, align 8, !tbaa !24
  %35 = call ptr @Aig_ObjFanin0(ptr noundef %34)
  %36 = load ptr, ptr %5, align 8, !tbaa !24
  %37 = call ptr @Aig_ObjFanin0(ptr noundef %36)
  %38 = icmp eq ptr %35, %37
  br i1 %38, label %39, label %46

39:                                               ; preds = %33
  %40 = load ptr, ptr %4, align 8, !tbaa !24
  %41 = call i32 @Aig_ObjFaninC0(ptr noundef %40)
  %42 = load ptr, ptr %5, align 8, !tbaa !24
  %43 = call i32 @Aig_ObjFaninC0(ptr noundef %42)
  %44 = xor i32 %41, %43
  %45 = icmp ne i32 %44, 0
  br i1 %45, label %87, label %46

46:                                               ; preds = %39, %33
  %47 = load ptr, ptr %4, align 8, !tbaa !24
  %48 = call ptr @Aig_ObjFanin0(ptr noundef %47)
  %49 = load ptr, ptr %5, align 8, !tbaa !24
  %50 = call ptr @Aig_ObjFanin1(ptr noundef %49)
  %51 = icmp eq ptr %48, %50
  br i1 %51, label %52, label %59

52:                                               ; preds = %46
  %53 = load ptr, ptr %4, align 8, !tbaa !24
  %54 = call i32 @Aig_ObjFaninC0(ptr noundef %53)
  %55 = load ptr, ptr %5, align 8, !tbaa !24
  %56 = call i32 @Aig_ObjFaninC1(ptr noundef %55)
  %57 = xor i32 %54, %56
  %58 = icmp ne i32 %57, 0
  br i1 %58, label %87, label %59

59:                                               ; preds = %52, %46
  %60 = load ptr, ptr %4, align 8, !tbaa !24
  %61 = call ptr @Aig_ObjFanin1(ptr noundef %60)
  %62 = load ptr, ptr %5, align 8, !tbaa !24
  %63 = call ptr @Aig_ObjFanin0(ptr noundef %62)
  %64 = icmp eq ptr %61, %63
  br i1 %64, label %65, label %72

65:                                               ; preds = %59
  %66 = load ptr, ptr %4, align 8, !tbaa !24
  %67 = call i32 @Aig_ObjFaninC1(ptr noundef %66)
  %68 = load ptr, ptr %5, align 8, !tbaa !24
  %69 = call i32 @Aig_ObjFaninC0(ptr noundef %68)
  %70 = xor i32 %67, %69
  %71 = icmp ne i32 %70, 0
  br i1 %71, label %87, label %72

72:                                               ; preds = %65, %59
  %73 = load ptr, ptr %4, align 8, !tbaa !24
  %74 = call ptr @Aig_ObjFanin1(ptr noundef %73)
  %75 = load ptr, ptr %5, align 8, !tbaa !24
  %76 = call ptr @Aig_ObjFanin1(ptr noundef %75)
  %77 = icmp eq ptr %74, %76
  br i1 %77, label %78, label %85

78:                                               ; preds = %72
  %79 = load ptr, ptr %4, align 8, !tbaa !24
  %80 = call i32 @Aig_ObjFaninC1(ptr noundef %79)
  %81 = load ptr, ptr %5, align 8, !tbaa !24
  %82 = call i32 @Aig_ObjFaninC1(ptr noundef %81)
  %83 = xor i32 %80, %82
  %84 = icmp ne i32 %83, 0
  br label %85

85:                                               ; preds = %78, %72
  %86 = phi i1 [ false, %72 ], [ %84, %78 ]
  br label %87

87:                                               ; preds = %85, %65, %52, %39
  %88 = phi i1 [ true, %65 ], [ true, %52 ], [ true, %39 ], [ %86, %85 ]
  %89 = zext i1 %88 to i32
  store i32 %89, ptr %2, align 4
  store i32 1, ptr %6, align 4
  br label %90

90:                                               ; preds = %87, %32, %19, %10
  call void @llvm.lifetime.end.p0(i64 8, ptr %5) #10
  call void @llvm.lifetime.end.p0(i64 8, ptr %4) #10
  %91 = load i32, ptr %2, align 4
  ret i32 %91
}