; Function Attrs: mustprogress nofree norecurse nosync nounwind willreturn memory(read, inaccessiblemem: none) uwtable
define range(i32 0, 2) i32 @Aig_ObjIsMuxType(ptr noundef readonly captures(none) %0) local_unnamed_addr #6 {
  %2 = getelementptr i8, ptr %0, i64 24
  %.val41 = load i64, ptr %2, align 8
  %3 = and i64 %.val41, 7
  %.not = icmp eq i64 %3, 5
  br i1 %.not, label %4, label %55

4:                                                ; preds = %1
  %5 = getelementptr i8, ptr %0, i64 8
  %.val42 = load ptr, ptr %5, align 8, !tbaa !32
  %6 = ptrtoint ptr %.val42 to i64
  %7 = and i64 %6, 1
  %.not23 = icmp eq i64 %7, 0
  br i1 %.not23, label %55, label %8

8:                                                ; preds = %4
  %9 = getelementptr i8, ptr %0, i64 16
  %.val47 = load ptr, ptr %9, align 8, !tbaa !35
  %10 = ptrtoint ptr %.val47 to i64
  %11 = and i64 %10, 1
  %.not24 = icmp eq i64 %11, 0
  br i1 %.not24, label %55, label %12

12:                                               ; preds = %8
  %13 = and i64 %6, -2
  %14 = inttoptr i64 %13 to ptr
  %15 = and i64 %10, -2
  %16 = inttoptr i64 %15 to ptr
  %17 = getelementptr i8, ptr %14, i64 24
  %.val40 = load i64, ptr %17, align 8
  %18 = and i64 %.val40, 7
  %.not52 = icmp eq i64 %18, 5
  br i1 %.not52, label %19, label %55

19:                                               ; preds = %12
  %20 = getelementptr i8, ptr %16, i64 24
  %.val39 = load i64, ptr %20, align 8
  %21 = and i64 %.val39, 7
  %.not53 = icmp eq i64 %21, 5
  br i1 %.not53, label %22, label %55

22:                                               ; preds = %19
  %23 = getelementptr i8, ptr %14, i64 8
  %.val32 = load ptr, ptr %23, align 8, !tbaa !32
  %24 = ptrtoint ptr %.val32 to i64
  %25 = and i64 %24, -2
  %26 = getelementptr i8, ptr %16, i64 8
  %.val31 = load ptr, ptr %26, align 8, !tbaa !32
  %27 = ptrtoint ptr %.val31 to i64
  %28 = and i64 %27, -2
  %29 = icmp eq i64 %25, %28
  br i1 %29, label %30, label %33

30:                                               ; preds = %22
  %31 = xor i64 %27, %24
  %32 = and i64 %31, 1
  %.not27 = icmp eq i64 %32, 0
  br i1 %.not27, label %33, label %55

33:                                               ; preds = %30, %22
  %34 = getelementptr i8, ptr %16, i64 16
  %.val37 = load ptr, ptr %34, align 8, !tbaa !35
  %35 = ptrtoint ptr %.val37 to i64
  %36 = and i64 %35, -2
  %37 = icmp eq i64 %25, %36
  br i1 %37, label %38, label %41

38:                                               ; preds = %33
  %39 = xor i64 %35, %24
  %40 = and i64 %39, 1
  %.not28 = icmp eq i64 %40, 0
  br i1 %.not28, label %41, label %55

41:                                               ; preds = %38, %33
  %42 = getelementptr i8, ptr %14, i64 16
  %.val36 = load ptr, ptr %42, align 8, !tbaa !35
  %43 = ptrtoint ptr %.val36 to i64
  %44 = and i64 %43, -2
  %45 = icmp eq i64 %44, %28
  br i1 %45, label %46, label %49

46:                                               ; preds = %41
  %47 = xor i64 %43, %27
  %48 = and i64 %47, 1
  %.not29 = icmp eq i64 %48, 0
  br i1 %.not29, label %49, label %55

49:                                               ; preds = %46, %41
  %50 = icmp eq i64 %44, %36
  br i1 %50, label %51, label %55

51:                                               ; preds = %49
  %52 = xor i64 %43, %35
  %53 = trunc i64 %52 to i32
  %54 = and i32 %53, 1
  br label %55

55:                                               ; preds = %30, %38, %46, %51, %49, %12, %19, %4, %8, %1
  %.0 = phi i32 [ 0, %1 ], [ 0, %8 ], [ 0, %4 ], [ 0, %19 ], [ 0, %12 ], [ 1, %46 ], [ 1, %38 ], [ 1, %30 ], [ 0, %49 ], [ %54, %51 ]
  ret i32 %.0
}